; Function Attrs: mustprogress uwtable
define hidden void @_ZN2lp10lar_solver23register_existing_termsEv(ptr noundef nonnull align 8 dereferenceable(2128) %0) local_unnamed_addr #5 align 2 {
  %2 = getelementptr inbounds nuw i8, ptr %0, i64 1248
  %3 = load i8, ptr %2, align 8, !tbaa !216, !range !318, !noundef !319
  %4 = trunc nuw i8 %3 to i1
  br i1 %4, label %.loopexit, label %5

5:                                                ; preds = %1
  %6 = getelementptr inbounds nuw i8, ptr %0, i64 1624
  %7 = load ptr, ptr %6, align 8, !tbaa !259
  %8 = icmp eq ptr %7, null
  br i1 %8, label %.loopexit, label %_ZN6vectorIPN2lp8lar_termELb1EjE3endEv.exit

_ZN6vectorIPN2lp8lar_termELb1EjE3endEv.exit:      ; preds = %5
  %9 = getelementptr inbounds i8, ptr %7, i64 -4
  %10 = load i32, ptr %9, align 4, !tbaa !261
  %11 = zext i32 %10 to i64
  %12 = getelementptr inbounds nuw ptr, ptr %7, i64 %11
  %.not9 = icmp eq i32 %10, 0
  br i1 %.not9, label %.loopexit, label %.lr.ph

.lr.ph:                                           ; preds = %_ZN6vectorIPN2lp8lar_termELb1EjE3endEv.exit, %.lr.ph
  %.010 = phi ptr [ %16, %.lr.ph ], [ %7, %_ZN6vectorIPN2lp8lar_termELb1EjE3endEv.exit ]
  %13 = load ptr, ptr %.010, align 8, !tbaa !286
  %14 = getelementptr inbounds nuw i8, ptr %13, i64 24
  %15 = load i32, ptr %14, align 8, !tbaa !454
  tail call void @_ZN2lp10lar_solver24register_normalized_termERKNS_8lar_termEj(ptr noundef nonnull align 8 dereferenceable(2128) %0, ptr noundef nonnull align 8 dereferenceable(28) %13, i32 noundef %15)
  %16 = getelementptr inbounds nuw i8, ptr %.010, i64 8
  %.not = icmp eq ptr %16, %12
  br i1 %.not, label %.loopexit, label %.lr.ph

.loopexit:                                        ; preds = %.lr.ph, %5, %_ZN6vectorIPN2lp8lar_termELb1EjE3endEv.exit, %1
  store i8 1, ptr %2, align 8, !tbaa !216
  ret void
}